target datalayout = "e-m:e-p270:32:32-p271:32:32-p272:64:64-i64:64-i128:128-f80:128-n8:16:32:64-S128"
target triple = "x86_64-pc-linux-gnu"

%"class.std::__shared_count" = type { ptr }
%"class.cv::ccm::ColorCorrectionModel::Impl" = type { %"class.cv::Mat", %"class.std::shared_ptr", %"class.cv::Mat", ptr, %"class.cv::Mat", %"class.cv::Mat", %"class.cv::Mat", i32, i32, %"class.std::shared_ptr.0", i32, i32, %"class.cv::Mat", %"class.cv::Mat", %"class.cv::Mat", %"class.cv::Mat", double, i32, %"class.std::vector", i32, double, i32, double, i32, double }
%"class.std::shared_ptr" = type { %"class.std::__shared_ptr" }
%"class.std::__shared_ptr" = type { ptr, %"class.std::__shared_count" }
%"class.std::shared_ptr.0" = type { %"class.std::__shared_ptr.1" }
%"class.std::__shared_ptr.1" = type { ptr, %"class.std::__shared_count" }
%"class.cv::Mat" = type { i32, i32, i32, i32, ptr, ptr, ptr, ptr, ptr, ptr, %"struct.cv::MatSize", %"struct.cv::MatStep" }
%"struct.cv::MatSize" = type { ptr }
%"struct.cv::MatStep" = type { ptr, [2 x i64] }
%"class.std::vector" = type { %"struct.std::_Vector_base" }
%"struct.std::_Vector_base" = type { %"struct.std::_Vector_base<double, std::allocator<double>>::_Vector_impl" }
%"struct.std::_Vector_base<double, std::allocator<double>>::_Vector_impl" = type { %"struct.std::_Vector_base<double, std::allocator<double>>::_Vector_impl_data" }
%"struct.std::_Vector_base<double, std::allocator<double>>::_Vector_impl_data" = type { ptr, ptr, ptr }
%"class.std::shared_ptr.43" = type { %"class.std::__shared_ptr.44" }
%"class.std::__shared_ptr.44" = type { ptr, %"class.std::__shared_count" }

; Function Attrs: mustprogress nounwind uwtable
define linkonce_odr hidden noundef ptr @_ZNKSt12__shared_ptrIN2cv3ccm10ColorSpaceELN9__gnu_cxx12_Lock_policyE2EE3getEv(ptr noundef nonnull align 8 dereferenceable(16) %0) #5 comdat align 2 {
  %2 = alloca ptr, align 8
  store ptr %0, ptr %2, align 8, !tbaa !204
  %3 = load ptr, ptr %2, align 8
  %4 = getelementptr inbounds nuw %"class.std::__shared_ptr.44", ptr %3, i32 0, i32 0
  %5 = load ptr, ptr %4, align 8, !tbaa !458
  ret ptr %5
}

; Function Attrs: mustprogress nounwind uwtable
define linkonce_odr hidden noundef ptr @_ZNKSt19__shared_ptr_accessIN2cv3ccm10ColorSpaceELN9__gnu_cxx12_Lock_policyE2ELb0ELb0EE6_M_getEv(ptr noundef nonnull align 1 dereferenceable(1) %0) #5 comdat align 2 {
  %2 = alloca ptr, align 8
  store ptr %0, ptr %2, align 8, !tbaa !202
  %3 = load ptr, ptr %2, align 8
  %4 = call noundef ptr @_ZNKSt12__shared_ptrIN2cv3ccm10ColorSpaceELN9__gnu_cxx12_Lock_policyE2EE3getEv(ptr noundef nonnull align 8 dereferenceable(16) %3) #19
  ret ptr %4
}

; Function Attrs: mustprogress nounwind uwtable
define linkonce_odr hidden noundef nonnull align 8 dereferenceable(200) ptr @_ZNKSt19__shared_ptr_accessIN2cv3ccm10ColorSpaceELN9__gnu_cxx12_Lock_policyE2ELb0ELb0EEdeEv(ptr noundef nonnull align 1 dereferenceable(1) %0) #5 comdat align 2 {
  %2 = alloca ptr, align 8
  store ptr %0, ptr %2, align 8, !tbaa !202
  %3 = load ptr, ptr %2, align 8
  br label %4

4:                                                ; preds = %1
  br label %5

5:                                                ; preds = %4
  br label %6

6:                                                ; preds = %5
  %7 = call noundef ptr @_ZNKSt19__shared_ptr_accessIN2cv3ccm10ColorSpaceELN9__gnu_cxx12_Lock_policyE2ELb0ELb0EE6_M_getEv(ptr noundef nonnull align 1 dereferenceable(1) %3) #19
  ret ptr %7
}

; Function Attrs: mustprogress uwtable
define void @_ZN2cv3ccm20ColorCorrectionModel4Impl8getColorENS_3MatENS0_11COLOR_SPACEES3_(ptr noundef nonnull align 8 dereferenceable(1008) %0, ptr noundef %1, i32 noundef %2, ptr noundef %3) #0 align 2 personality ptr @__gxx_personality_v0 {
  %5 = alloca ptr, align 8
  %6 = alloca ptr, align 8
  %7 = alloca i32, align 4
  %8 = alloca ptr, align 8
  %9 = alloca %"class.cv::Mat", align 8
  %10 = alloca ptr, align 8
  %11 = alloca i32, align 4
  %12 = alloca %"class.std::shared_ptr.43", align 8
  %13 = alloca %"class.cv::Mat", align 8
  %14 = alloca i1, align 1
  store ptr %0, ptr %5, align 8, !tbaa !3
  store ptr %1, ptr %6, align 8, !tbaa !62
  store i32 %2, ptr %7, align 4, !tbaa !198
  store ptr %3, ptr %8, align 8, !tbaa !62
  %15 = load ptr, ptr %5, align 8
  %16 = getelementptr inbounds nuw %"class.cv::ccm::ColorCorrectionModel::Impl", ptr %15, i32 0, i32 1
  %17 = call noalias noundef nonnull ptr @_Znwm(i64 noundef 352) #22
  store i1 true, ptr %14, align 1
  invoke void @_ZN2cv3MatC1ERKS0_(ptr noundef nonnull align 8 dereferenceable(96) %9, ptr noundef nonnull align 8 dereferenceable(96) %1)
          to label %18 unwind label %27

18:                                               ; preds = %4
  call void @llvm.lifetime.start.p0(i64 16, ptr %12) #19
  %19 = invoke noundef nonnull align 8 dereferenceable(48) ptr @_ZN2cv3ccm5GetCS11getInstanceEv()
          to label %20 unwind label %31

20:                                               ; preds = %18
  %21 = load i32, ptr %7, align 4, !tbaa !198
  invoke void @_ZN2cv3ccm5GetCS6get_csENS0_11COLOR_SPACEE(ptr dead_on_unwind writable sret(%"class.std::shared_ptr.43") align 8 %12, ptr noundef nonnull align 8 dereferenceable(48) %19, i32 noundef %21)
          to label %22 unwind label %31

22:                                               ; preds = %20
  %23 = call noundef nonnull align 8 dereferenceable(200) ptr @_ZNKSt19__shared_ptr_accessIN2cv3ccm10ColorSpaceELN9__gnu_cxx12_Lock_policyE2ELb0ELb0EEdeEv(ptr noundef nonnull align 1 dereferenceable(1) %12) #19
  invoke void @_ZN2cv3MatC1ERKS0_(ptr noundef nonnull align 8 dereferenceable(96) %13, ptr noundef nonnull align 8 dereferenceable(96) %3)
          to label %24 unwind label %35

24:                                               ; preds = %22
  invoke void @_ZN2cv3ccm5ColorC1ENS_3MatERKNS0_10ColorSpaceES2_(ptr noundef nonnull align 8 dereferenceable(352) %17, ptr noundef %9, ptr noundef nonnull align 8 dereferenceable(200) %23, ptr noundef %13)
          to label %25 unwind label %39

25:                                               ; preds = %24
  store i1 false, ptr %14, align 1
  invoke void @_ZNSt12__shared_ptrIN2cv3ccm5ColorELN9__gnu_cxx12_Lock_policyE2EE5resetIS2_EENSt9enable_ifIXsr21__sp_is_constructibleIS2_T_EE5valueEvE4typeEPS8_(ptr noundef nonnull align 8 dereferenceable(16) %16, ptr noundef %17)
          to label %26 unwind label %39

26:                                               ; preds = %25
  call void @_ZN2cv3MatD1Ev(ptr noundef nonnull align 8 dereferenceable(96) %13) #19
  call void @_ZNSt12__shared_ptrIN2cv3ccm10ColorSpaceELN9__gnu_cxx12_Lock_policyE2EED2Ev(ptr noundef nonnull align 8 dereferenceable(16) %12) #19
  call void @llvm.lifetime.end.p0(i64 16, ptr %12) #19
  call void @_ZN2cv3MatD1Ev(ptr noundef nonnull align 8 dereferenceable(96) %9) #19
  ret void

27:                                               ; preds = %4
  %28 = landingpad { ptr, i32 }
          cleanup
  %29 = extractvalue { ptr, i32 } %28, 0
  store ptr %29, ptr %10, align 8
  %30 = extractvalue { ptr, i32 } %28, 1
  store i32 %30, ptr %11, align 4
  br label %45

31:                                               ; preds = %20, %18
  %32 = landingpad { ptr, i32 }
          cleanup
  %33 = extractvalue { ptr, i32 } %32, 0
  store ptr %33, ptr %10, align 8
  %34 = extractvalue { ptr, i32 } %32, 1
  store i32 %34, ptr %11, align 4
  br label %44

35:                                               ; preds = %22
  %36 = landingpad { ptr, i32 }
          cleanup
  %37 = extractvalue { ptr, i32 } %36, 0
  store ptr %37, ptr %10, align 8
  %38 = extractvalue { ptr, i32 } %36, 1
  store i32 %38, ptr %11, align 4
  br label %43

39:                                               ; preds = %25, %24
  %40 = landingpad { ptr, i32 }
          cleanup
  %41 = extractvalue { ptr, i32 } %40, 0
  store ptr %41, ptr %10, align 8
  %42 = extractvalue { ptr, i32 } %40, 1
  store i32 %42, ptr %11, align 4
  call void @_ZN2cv3MatD1Ev(ptr noundef nonnull align 8 dereferenceable(96) %13) #19
  br label %43

43:                                               ; preds = %39, %35
  call void @_ZNSt12__shared_ptrIN2cv3ccm10ColorSpaceELN9__gnu_cxx12_Lock_policyE2EED2Ev(ptr noundef nonnull align 8 dereferenceable(16) %12) #19
  br label %44

44:                                               ; preds = %43, %31
  call void @llvm.lifetime.end.p0(i64 16, ptr %12) #19
  call void @_ZN2cv3MatD1Ev(ptr noundef nonnull align 8 dereferenceable(96) %9) #19
  br label %45

45:                                               ; preds = %44, %27
  %46 = load i1, ptr %14, align 1
  br i1 %46, label %47, label %48

47:                                               ; preds = %45
  call void @_ZdlPv(ptr noundef %17) #23
  br label %48

48:                                               ; preds = %47, %45
  br label %49

49:                                               ; preds = %48
  %50 = load ptr, ptr %10, align 8
  %51 = load i32, ptr %11, align 4
  %52 = insertvalue { ptr, i32 } poison, ptr %50, 0
  %53 = insertvalue { ptr, i32 } %52, i32 %51, 1
  resume { ptr, i32 } %53
}