; Function Attrs: mustprogress uwtable
define void @_ZN2cv3ccm20ColorCorrectionModel4Impl8getColorENS_3MatENS0_11COLOR_SPACEES3_(ptr noundef nonnull align 8 dereferenceable(1008) %0, ptr noundef %1, i32 noundef %2, ptr noundef %3) local_unnamed_addr #0 align 2 personality ptr @__gxx_personality_v0 {
  %5 = alloca %"class.cv::Mat", align 8
  %6 = alloca %"class.std::shared_ptr.43", align 8
  %7 = alloca %"class.cv::Mat", align 8
  %8 = getelementptr inbounds nuw i8, ptr %0, i64 96
  %9 = tail call noalias noundef nonnull dereferenceable(352) ptr @_Znwm(i64 noundef 352) #22
  invoke void @_ZN2cv3MatC1ERKS0_(ptr noundef nonnull align 8 dereferenceable(96) %5, ptr noundef nonnull align 8 dereferenceable(96) %1)
          to label %10 unwind label %.thread

10:                                               ; preds = %4
  call void @llvm.lifetime.start.p0(i64 16, ptr nonnull %6) #21
  %11 = invoke noundef nonnull align 8 dereferenceable(48) ptr @_ZN2cv3ccm5GetCS11getInstanceEv()
          to label %12 unwind label %.thread17

12:                                               ; preds = %10
  invoke void @_ZN2cv3ccm5GetCS6get_csENS0_11COLOR_SPACEE(ptr dead_on_unwind nonnull writable sret(%"class.std::shared_ptr.43") align 8 %6, ptr noundef nonnull align 8 dereferenceable(48) %11, i32 noundef %2)
          to label %13 unwind label %.thread17

13:                                               ; preds = %12
  %14 = load ptr, ptr %6, align 8, !tbaa !180
  invoke void @_ZN2cv3MatC1ERKS0_(ptr noundef nonnull align 8 dereferenceable(96) %7, ptr noundef nonnull align 8 dereferenceable(96) %3)
          to label %15 unwind label %43

15:                                               ; preds = %13
  invoke void @_ZN2cv3ccm5ColorC1ENS_3MatERKNS0_10ColorSpaceES2_(ptr noundef nonnull align 8 dereferenceable(352) %9, ptr noundef nonnull %5, ptr noundef nonnull align 8 dereferenceable(200) %14, ptr noundef nonnull %7)
          to label %16 unwind label %45

16:                                               ; preds = %15
  invoke void @_ZNSt12__shared_ptrIN2cv3ccm5ColorELN9__gnu_cxx12_Lock_policyE2EE5resetIS2_EENSt9enable_ifIXsr21__sp_is_constructibleIS2_T_EE5valueEvE4typeEPS8_(ptr noundef nonnull align 8 dereferenceable(16) %8, ptr noundef nonnull %9)
          to label %17 unwind label %45

17:                                               ; preds = %16
  call void @_ZN2cv3MatD1Ev(ptr noundef nonnull align 8 dereferenceable(96) %7) #21
  %18 = getelementptr inbounds nuw i8, ptr %6, i64 8
  %19 = load ptr, ptr %18, align 8, !tbaa !20
  %.not.i.i = icmp eq ptr %19, null
  br i1 %.not.i.i, label %_ZNSt12__shared_ptrIN2cv3ccm10ColorSpaceELN9__gnu_cxx12_Lock_policyE2EED2Ev.exit, label %20

20:                                               ; preds = %17
  %21 = getelementptr inbounds nuw i8, ptr %19, i64 8
  %22 = load atomic i64, ptr %21 acquire, align 8
  %23 = icmp eq i64 %22, 4294967297
  %24 = trunc i64 %22 to i32
  br i1 %23, label %25, label %33

25:                                               ; preds = %20
  store i32 0, ptr %21, align 8, !tbaa !14
  %26 = getelementptr inbounds nuw i8, ptr %19, i64 12
  store i32 0, ptr %26, align 4, !tbaa !17
  %27 = load ptr, ptr %19, align 8, !tbaa !18
  %28 = getelementptr inbounds nuw i8, ptr %27, i64 16
  %29 = load ptr, ptr %28, align 8
  call void %29(ptr noundef nonnull align 8 dereferenceable(16) %19) #21
  %30 = load ptr, ptr %19, align 8, !tbaa !18
  %31 = getelementptr inbounds nuw i8, ptr %30, i64 24
  %32 = load ptr, ptr %31, align 8
  call void %32(ptr noundef nonnull align 8 dereferenceable(16) %19) #21
  br label %_ZNSt12__shared_ptrIN2cv3ccm10ColorSpaceELN9__gnu_cxx12_Lock_policyE2EED2Ev.exit

33:                                               ; preds = %20
  %34 = load i8, ptr @__libc_single_threaded, align 1, !tbaa !25
  %.not.i.i.i = icmp eq i8 %34, 0
  br i1 %.not.i.i.i, label %37, label %35

35:                                               ; preds = %33
  %36 = add nsw i32 %24, -1
  store i32 %36, ptr %21, align 4, !tbaa !26
  br label %_ZN9__gnu_cxx27__exchange_and_add_dispatchEPii.exit.i.i.i

37:                                               ; preds = %33
  %38 = atomicrmw volatile add ptr %21, i32 -1 acq_rel, align 4
  br label %_ZN9__gnu_cxx27__exchange_and_add_dispatchEPii.exit.i.i.i

_ZN9__gnu_cxx27__exchange_and_add_dispatchEPii.exit.i.i.i: ; preds = %37, %35
  %.0.i.i.i.i = phi i32 [ %24, %35 ], [ %38, %37 ]
  %39 = icmp eq i32 %.0.i.i.i.i, 1
  br i1 %39, label %40, label %_ZNSt12__shared_ptrIN2cv3ccm10ColorSpaceELN9__gnu_cxx12_Lock_policyE2EED2Ev.exit, !prof !27

40:                                               ; preds = %_ZN9__gnu_cxx27__exchange_and_add_dispatchEPii.exit.i.i.i
  call void @_ZNSt16_Sp_counted_baseILN9__gnu_cxx12_Lock_policyE2EE24_M_release_last_use_coldEv(ptr noundef nonnull align 8 dereferenceable(16) %19) #21
  br label %_ZNSt12__shared_ptrIN2cv3ccm10ColorSpaceELN9__gnu_cxx12_Lock_policyE2EED2Ev.exit

_ZNSt12__shared_ptrIN2cv3ccm10ColorSpaceELN9__gnu_cxx12_Lock_policyE2EED2Ev.exit: ; preds = %17, %25, %_ZN9__gnu_cxx27__exchange_and_add_dispatchEPii.exit.i.i.i, %40
  call void @llvm.lifetime.end.p0(i64 16, ptr nonnull %6) #21
  call void @_ZN2cv3MatD1Ev(ptr noundef nonnull align 8 dereferenceable(96) %5) #21
  ret void

.thread:                                          ; preds = %4
  %41 = landingpad { ptr, i32 }
          cleanup
  br label %48

.thread17:                                        ; preds = %10, %12
  %42 = landingpad { ptr, i32 }
          cleanup
  call void @llvm.lifetime.end.p0(i64 16, ptr nonnull %6) #21
  call void @_ZN2cv3MatD1Ev(ptr noundef nonnull align 8 dereferenceable(96) %5) #21
  br label %48

43:                                               ; preds = %13
  %44 = landingpad { ptr, i32 }
          cleanup
  br label %47

45:                                               ; preds = %16, %15
  %.0 = phi i1 [ false, %16 ], [ true, %15 ]
  %46 = landingpad { ptr, i32 }
          cleanup
  call void @_ZN2cv3MatD1Ev(ptr noundef nonnull align 8 dereferenceable(96) %7) #21
  br label %47

47:                                               ; preds = %43, %45
  %.pn = phi { ptr, i32 } [ %46, %45 ], [ %44, %43 ]
  %.3 = phi i1 [ %.0, %45 ], [ true, %43 ]
  call void @_ZNSt12__shared_ptrIN2cv3ccm10ColorSpaceELN9__gnu_cxx12_Lock_policyE2EED2Ev(ptr noundef nonnull align 8 dereferenceable(16) %6) #21
  call void @llvm.lifetime.end.p0(i64 16, ptr nonnull %6) #21
  call void @_ZN2cv3MatD1Ev(ptr noundef nonnull align 8 dereferenceable(96) %5) #21
  br i1 %.3, label %48, label %49

48:                                               ; preds = %.thread17, %.thread, %47
  %.pn.pn.pn16 = phi { ptr, i32 } [ %41, %.thread ], [ %.pn, %47 ], [ %42, %.thread17 ]
  call void @_ZdlPv(ptr noundef nonnull %9) #23
  br label %49

49:                                               ; preds = %47, %48
  %.pn.pn.pn15 = phi { ptr, i32 } [ %.pn, %47 ], [ %.pn.pn.pn16, %48 ]
  resume { ptr, i32 } %.pn.pn.pn15
}